; Function Attrs: mustprogress uwtable
define void @_ZN6google8protobuf5Mixin9MergeImplERNS0_11MessageLiteERKS2_(ptr noundef nonnull align 8 dereferenceable(16) %to_msg, ptr nocapture noundef nonnull readonly align 8 dereferenceable(16) %from_msg) #3 align 2 {
entry:
  %0 = getelementptr inbounds i8, ptr %from_msg, i64 16
  %1 = load ptr, ptr %0, align 8
  %2 = ptrtoint ptr %1 to i64
  %and.i.i = and i64 %2, -4
  %3 = inttoptr i64 %and.i.i to ptr
  %call2 = tail call noundef zeroext i1 @_ZNKSt7__cxx1112basic_stringIcSt11char_traitsIcESaIcEE5emptyEv(ptr noundef nonnull align 8 dereferenceable(32) %3) #16
  br i1 %call2, label %if.end, label %if.then

if.then:                                          ; preds = %entry
  %4 = load ptr, ptr %0, align 8
  %5 = ptrtoint ptr %4 to i64
  %and.i.i8 = and i64 %5, -4
  %6 = inttoptr i64 %and.i.i8 to ptr
  %7 = getelementptr inbounds i8, ptr %to_msg, i64 16
  %_internal_metadata_.i = getelementptr inbounds i8, ptr %to_msg, i64 8
  %8 = load i64, ptr %_internal_metadata_.i, align 8
  %and.i.i.i = and i64 %8, 1
  %tobool.i.i.not.i = icmp eq i64 %and.i.i.i, 0
  br i1 %tobool.i.i.not.i, label %if.else.i.i, label %if.then.i.i

if.then.i.i:                                      ; preds = %if.then
  %and.i.i9 = and i64 %8, -2
  %9 = inttoptr i64 %and.i.i9 to ptr
  %10 = load ptr, ptr %9, align 8
  br label %_ZNK6google8protobuf11MessageLite8GetArenaEv.exit

if.else.i.i:                                      ; preds = %if.then
  %11 = inttoptr i64 %8 to ptr
  br label %_ZNK6google8protobuf11MessageLite8GetArenaEv.exit

_ZNK6google8protobuf11MessageLite8GetArenaEv.exit: ; preds = %if.then.i.i, %if.else.i.i
  %retval.i.0.i = phi ptr [ %10, %if.then.i.i ], [ %11, %if.else.i.i ]
  tail call void @_ZN6google8protobuf8internal14ArenaStringPtr3SetIJEEEvRKNSt7__cxx1112basic_stringIcSt11char_traitsIcESaIcEEEPNS0_5ArenaE(ptr noundef nonnull align 8 dereferenceable(8) %7, ptr noundef nonnull align 8 dereferenceable(32) %6, ptr noundef %retval.i.0.i)
  br label %if.end

if.end:                                           ; preds = %_ZNK6google8protobuf11MessageLite8GetArenaEv.exit, %entry
  %root_.i10 = getelementptr inbounds i8, ptr %from_msg, i64 24
  %12 = load ptr, ptr %root_.i10, align 8
  %13 = ptrtoint ptr %12 to i64
  %and.i.i11 = and i64 %13, -4
  %14 = inttoptr i64 %and.i.i11 to ptr
  %call5 = tail call noundef zeroext i1 @_ZNKSt7__cxx1112basic_stringIcSt11char_traitsIcESaIcEE5emptyEv(ptr noundef nonnull align 8 dereferenceable(32) %14) #16
  br i1 %call5, label %if.end8, label %if.then6

if.then6:                                         ; preds = %if.end
  %15 = load ptr, ptr %root_.i10, align 8
  %16 = ptrtoint ptr %15 to i64
  %and.i.i13 = and i64 %16, -4
  %17 = inttoptr i64 %and.i.i13 to ptr
  %root_.i = getelementptr inbounds i8, ptr %to_msg, i64 24
  %_internal_metadata_.i14 = getelementptr inbounds i8, ptr %to_msg, i64 8
  %18 = load i64, ptr %_internal_metadata_.i14, align 8
  %and.i.i.i15 = and i64 %18, 1
  %tobool.i.i.not.i16 = icmp eq i64 %and.i.i.i15, 0
  br i1 %tobool.i.i.not.i16, label %if.else.i.i20, label %if.then.i.i17

if.then.i.i17:                                    ; preds = %if.then6
  %and.i.i18 = and i64 %18, -2
  %19 = inttoptr i64 %and.i.i18 to ptr
  %20 = load ptr, ptr %19, align 8
  br label %_ZNK6google8protobuf11MessageLite8GetArenaEv.exit21

if.else.i.i20:                                    ; preds = %if.then6
  %21 = inttoptr i64 %18 to ptr
  br label %_ZNK6google8protobuf11MessageLite8GetArenaEv.exit21

_ZNK6google8protobuf11MessageLite8GetArenaEv.exit21: ; preds = %if.then.i.i17, %if.else.i.i20
  %retval.i.0.i19 = phi ptr [ %20, %if.then.i.i17 ], [ %21, %if.else.i.i20 ]
  tail call void @_ZN6google8protobuf8internal14ArenaStringPtr3SetIJEEEvRKNSt7__cxx1112basic_stringIcSt11char_traitsIcESaIcEEEPNS0_5ArenaE(ptr noundef nonnull align 8 dereferenceable(8) %root_.i, ptr noundef nonnull align 8 dereferenceable(32) %17, ptr noundef %retval.i.0.i19)
  br label %if.end8

if.end8:                                          ; preds = %_ZNK6google8protobuf11MessageLite8GetArenaEv.exit21, %if.end
  %_internal_metadata_9 = getelementptr inbounds i8, ptr %from_msg, i64 8
  %22 = load i64, ptr %_internal_metadata_9, align 8
  %and.i27 = and i64 %22, 1
  %tobool.i28.not = icmp eq i64 %and.i27, 0
  br i1 %tobool.i28.not, label %_ZN6google8protobuf8internal16InternalMetadata9MergeFromINS0_15UnknownFieldSetEEEvRKS2_.exit, label %if.then.i15

if.then.i15:                                      ; preds = %if.end8
  %_internal_metadata_ = getelementptr inbounds i8, ptr %to_msg, i64 8
  %and.i = and i64 %22, -2
  %23 = inttoptr i64 %and.i to ptr
  %unknown_fields.i = getelementptr inbounds i8, ptr %23, i64 8
  tail call void @_ZN6google8protobuf8internal16InternalMetadata11DoMergeFromINS0_15UnknownFieldSetEEEvRKT_(ptr noundef nonnull align 8 dereferenceable(8) %_internal_metadata_, ptr noundef nonnull align 8 dereferenceable(24) %unknown_fields.i)
  br label %_ZN6google8protobuf8internal16InternalMetadata9MergeFromINS0_15UnknownFieldSetEEEvRKS2_.exit

_ZN6google8protobuf8internal16InternalMetadata9MergeFromINS0_15UnknownFieldSetEEEvRKS2_.exit: ; preds = %if.then.i15, %if.end8
  ret void
}